(lp0
(i__main__
TaquinEtat
p1
(dp2
S'largeur'
p3
I3
sS'hauteur'
p4
I3
sS'tableau'
p5
cnumpy.core.multiarray
_reconstruct
p6
(cnumpy
ndarray
p7
(I0
tp8
S'b'
p9
tp10
Rp11
(I1
(I3
I3
tp12
cnumpy
dtype
p13
(S'S1'
p14
I0
I1
tp15
Rp16
(I3
S'|'
p17
NNNI1
I1
I0
tp18
bI00
S'6237 8415'
p19
tp20
bsba(i__main__
TaquinEtat
p21
(dp22
g3
I3
sg4
I3
sg5
g6
(g7
(I0
tp23
g9
tp24
Rp25
(I1
(I3
I3
tp26
g16
I00
S'6237184 5'
p27
tp28
bsba(i__main__
TaquinEtat
p29
(dp30
g3
I3
sg4
I3
sg5
g6
(g7
(I0
tp31
g9
tp32
Rp33
(I1
(I3
I3
tp34
g16
I00
S'623718 45'
p35
tp36
bsba(i__main__
TaquinEtat
p37
(dp38
g3
I3
sg4
I3
sg5
g6
(g7
(I0
tp39
g9
tp40
Rp41
(I1
(I3
I3
tp42
g16
I00
S'623 18745'
p43
tp44
bsba(i__main__
TaquinEtat
p45
(dp46
g3
I3
sg4
I3
sg5
g6
(g7
(I0
tp47
g9
tp48
Rp49
(I1
(I3
I3
tp50
g16
I00
S'6231 8745'
p51
tp52
bsba(i__main__
TaquinEtat
p53
(dp54
g3
I3
sg4
I3
sg5
g6
(g7
(I0
tp55
g9
tp56
Rp57
(I1
(I3
I3
tp58
g16
I00
S'6231487 5'
p59
tp60
bsba(i__main__
TaquinEtat
p61
(dp62
g3
I3
sg4
I3
sg5
g6
(g7
(I0
tp63
g9
tp64
Rp65
(I1
(I3
I3
tp66
g16
I00
S'62314875 '
p67
tp68
bsba(i__main__
TaquinEtat
p69
(dp70
g3
I3
sg4
I3
sg5
g6
(g7
(I0
tp71
g9
tp72
Rp73
(I1
(I3
I3
tp74
g16
I00
S'62314 758'
p75
tp76
bsba(i__main__
TaquinEtat
p77
(dp78
g3
I3
sg4
I3
sg5
g6
(g7
(I0
tp79
g9
tp80
Rp81
(I1
(I3
I3
tp82
g16
I00
S'62 143758'
p83
tp84
bsba(i__main__
TaquinEtat
p85
(dp86
g3
I3
sg4
I3
sg5
g6
(g7
(I0
tp87
g9
tp88
Rp89
(I1
(I3
I3
tp90
g16
I00
S'6 2143758'
p91
tp92
bsba(i__main__
TaquinEtat
p93
(dp94
g3
I3
sg4
I3
sg5
g6
(g7
(I0
tp95
g9
tp96
Rp97
(I1
(I3
I3
tp98
g16
I00
S' 62143758'
p99
tp100
bsba(i__main__
TaquinEtat
p101
(dp102
g3
I3
sg4
I3
sg5
g6
(g7
(I0
tp103
g9
tp104
Rp105
(I1
(I3
I3
tp106
g16
I00
S'162 43758'
p107
tp108
bsba(i__main__
TaquinEtat
p109
(dp110
g3
I3
sg4
I3
sg5
g6
(g7
(I0
tp111
g9
tp112
Rp113
(I1
(I3
I3
tp114
g16
I00
S'1624 3758'
p115
tp116
bsba(i__main__
TaquinEtat
p117
(dp118
g3
I3
sg4
I3
sg5
g6
(g7
(I0
tp119
g9
tp120
Rp121
(I1
(I3
I3
tp122
g16
I00
S'1 2463758'
p123
tp124
bsba(i__main__
TaquinEtat
p125
(dp126
g3
I3
sg4
I3
sg5
g6
(g7
(I0
tp127
g9
tp128
Rp129
(I1
(I3
I3
tp130
g16
I00
S'12 463758'
p131
tp132
bsba(i__main__
TaquinEtat
p133
(dp134
g3
I3
sg4
I3
sg5
g6
(g7
(I0
tp135
g9
tp136
Rp137
(I1
(I3
I3
tp138
g16
I00
S'12346 758'
p139
tp140
bsba(i__main__
TaquinEtat
p141
(dp142
g3
I3
sg4
I3
sg5
g6
(g7
(I0
tp143
g9
tp144
Rp145
(I1
(I3
I3
tp146
g16
I00
S'1234 6758'
p147
tp148
bsba(i__main__
TaquinEtat
p149
(dp150
g3
I3
sg4
I3
sg5
g6
(g7
(I0
tp151
g9
tp152
Rp153
(I1
(I3
I3
tp154
g16
I00
S'1234567 8'
p155
tp156
bsba(i__main__
TaquinEtat
p157
(dp158
g3
I3
sg4
I3
sg5
g6
(g7
(I0
tp159
g9
tp160
Rp161
(I1
(I3
I3
tp162
g16
I00
S'12345678 '
p163
tp164
bsba.